target datalayout = "e-m:e-p270:32:32-p271:32:32-p272:64:64-i64:64-i128:128-f80:128-n8:16:32:64-S128"
target triple = "x86_64-unknown-linux-gnu"

%"class.std::__cxx11::basic_string" = type { %"struct.std::__cxx11::basic_string<char>::_Alloc_hider", i64, %union.anon }
%"struct.std::__cxx11::basic_string<char>::_Alloc_hider" = type { ptr }
%union.anon = type { i64, [8 x i8] }
%"class.std::_Sp_counted_base" = type { ptr, i32, i32 }
%"struct.rocksdb::(anonymous namespace)::BackupEngineImpl::FileInfo" = type <{ i32, [4 x i8], %"class.std::__cxx11::basic_string", i64, %"class.std::__cxx11::basic_string", %"class.std::__cxx11::basic_string", %"class.std::__cxx11::basic_string", i8, [7 x i8] }>
%"class.std::_Sp_counted_ptr_inplace.574" = type { %"class.std::_Sp_counted_base", %"class.std::_Sp_counted_ptr_inplace<rocksdb::(anonymous namespace)::BackupEngineImpl::FileInfo, std::allocator<void>, __gnu_cxx::_S_atomic>::_Impl" }
%"class.std::_Sp_counted_ptr_inplace<rocksdb::(anonymous namespace)::BackupEngineImpl::FileInfo, std::allocator<void>, __gnu_cxx::_S_atomic>::_Impl" = type { %"struct.__gnu_cxx::__aligned_buffer.575" }
%"struct.__gnu_cxx::__aligned_buffer.575" = type { %"union.std::aligned_storage<152, 8>::type" }
%"union.std::aligned_storage<152, 8>::type" = type { [152 x i8] }

; Function Attrs: mustprogress nounwind uwtable
define internal void @_ZN7rocksdb12_GLOBAL__N_116BackupEngineImpl8FileInfoD2Ev(ptr noundef nonnull align 8 dereferenceable(145) %this) unnamed_addr #1 align 2 {
entry:
  %this.addr = alloca ptr, align 8
  store ptr %this, ptr %this.addr, align 8
  %this1 = load ptr, ptr %this.addr, align 8
  %db_session_id = getelementptr inbounds %"struct.rocksdb::(anonymous namespace)::BackupEngineImpl::FileInfo", ptr %this1, i32 0, i32 6
  call void @_ZNSt7__cxx1112basic_stringIcSt11char_traitsIcESaIcEED1Ev(ptr noundef nonnull align 8 dereferenceable(32) %db_session_id) #3
  %db_id = getelementptr inbounds %"struct.rocksdb::(anonymous namespace)::BackupEngineImpl::FileInfo", ptr %this1, i32 0, i32 5
  call void @_ZNSt7__cxx1112basic_stringIcSt11char_traitsIcESaIcEED1Ev(ptr noundef nonnull align 8 dereferenceable(32) %db_id) #3
  %checksum_hex = getelementptr inbounds %"struct.rocksdb::(anonymous namespace)::BackupEngineImpl::FileInfo", ptr %this1, i32 0, i32 4
  call void @_ZNSt7__cxx1112basic_stringIcSt11char_traitsIcESaIcEED1Ev(ptr noundef nonnull align 8 dereferenceable(32) %checksum_hex) #3
  %filename = getelementptr inbounds %"struct.rocksdb::(anonymous namespace)::BackupEngineImpl::FileInfo", ptr %this1, i32 0, i32 2
  call void @_ZNSt7__cxx1112basic_stringIcSt11char_traitsIcESaIcEED1Ev(ptr noundef nonnull align 8 dereferenceable(32) %filename) #3
  ret void
}

; Function Attrs: mustprogress nounwind uwtable
define internal noundef ptr @_ZN9__gnu_cxx16__aligned_bufferIN7rocksdb12_GLOBAL__N_116BackupEngineImpl8FileInfoEE7_M_addrEv(ptr noundef nonnull align 8 dereferenceable(152) %this) #1 align 2 {
entry:
  %this.addr = alloca ptr, align 8
  store ptr %this, ptr %this.addr, align 8
  %this1 = load ptr, ptr %this.addr, align 8
  %_M_storage = getelementptr inbounds %"struct.__gnu_cxx::__aligned_buffer.575", ptr %this1, i32 0, i32 0
  ret ptr %_M_storage
}

; Function Attrs: noreturn nounwind uwtable
define linkonce_odr hidden void @__clang_call_terminate(ptr noundef %0) #13 comdat {
  %2 = call ptr @__cxa_begin_catch(ptr %0) #3
  call void @_ZSt9terminatev() #19
  unreachable
}

; Function Attrs: mustprogress nounwind uwtable
define internal void @_ZSt8_DestroyIN7rocksdb12_GLOBAL__N_116BackupEngineImpl8FileInfoEEvPT_(ptr noundef %__pointer) #1 {
entry:
  %__pointer.addr = alloca ptr, align 8
  store ptr %__pointer, ptr %__pointer.addr, align 8
  %0 = load ptr, ptr %__pointer.addr, align 8
  call void @_ZN7rocksdb12_GLOBAL__N_116BackupEngineImpl8FileInfoD2Ev(ptr noundef nonnull align 8 dereferenceable(145) %0) #3
  ret void
}

; Function Attrs: mustprogress nounwind uwtable
define internal noundef ptr @_ZN9__gnu_cxx16__aligned_bufferIN7rocksdb12_GLOBAL__N_116BackupEngineImpl8FileInfoEE6_M_ptrEv(ptr noundef nonnull align 8 dereferenceable(152) %this) #1 align 2 {
entry:
  %this.addr = alloca ptr, align 8
  store ptr %this, ptr %this.addr, align 8
  %this1 = load ptr, ptr %this.addr, align 8
  %call = call noundef ptr @_ZN9__gnu_cxx16__aligned_bufferIN7rocksdb12_GLOBAL__N_116BackupEngineImpl8FileInfoEE7_M_addrEv(ptr noundef nonnull align 8 dereferenceable(152) %this1) #3
  ret ptr %call
}

; Function Attrs: mustprogress nounwind uwtable
define linkonce_odr noundef nonnull align 1 dereferenceable(1) ptr @_ZNSt14_Sp_ebo_helperILi0ESaIvELb1EE6_S_getERS1_(ptr noundef nonnull align 1 dereferenceable(1) %__eboh) #1 comdat align 2 {
entry:
  %__eboh.addr = alloca ptr, align 8
  store ptr %__eboh, ptr %__eboh.addr, align 8
  %0 = load ptr, ptr %__eboh.addr, align 8
  ret ptr %0
}

; Function Attrs: mustprogress nounwind uwtable
define internal void @_ZNSt16allocator_traitsISaIvEE7destroyIN7rocksdb12_GLOBAL__N_116BackupEngineImpl8FileInfoEEEvRS0_PT_(ptr noundef nonnull align 1 dereferenceable(1) %0, ptr noundef %__p) #1 align 2 personality ptr @__gxx_personality_v0 {
entry:
  %.addr = alloca ptr, align 8
  %__p.addr = alloca ptr, align 8
  store ptr %0, ptr %.addr, align 8
  store ptr %__p, ptr %__p.addr, align 8
  %1 = load ptr, ptr %__p.addr, align 8
  invoke void @_ZSt8_DestroyIN7rocksdb12_GLOBAL__N_116BackupEngineImpl8FileInfoEEvPT_(ptr noundef %1)
          to label %invoke.cont unwind label %terminate.lpad

invoke.cont:                                      ; preds = %entry
  ret void

terminate.lpad:                                   ; preds = %entry
  %2 = landingpad { ptr, i32 }
          catch ptr null
  %3 = extractvalue { ptr, i32 } %2, 0
  call void @__clang_call_terminate(ptr %3) #19
  unreachable
}

; Function Attrs: mustprogress nounwind uwtable
define internal noundef ptr @_ZNSt23_Sp_counted_ptr_inplaceIN7rocksdb12_GLOBAL__N_116BackupEngineImpl8FileInfoESaIvELN9__gnu_cxx12_Lock_policyE2EE6_M_ptrEv(ptr noundef nonnull align 8 dereferenceable(168) %this) #1 align 2 {
entry:
  %this.addr = alloca ptr, align 8
  store ptr %this, ptr %this.addr, align 8
  %this1 = load ptr, ptr %this.addr, align 8
  %_M_impl = getelementptr inbounds %"class.std::_Sp_counted_ptr_inplace.574", ptr %this1, i32 0, i32 1
  %_M_storage = getelementptr inbounds %"class.std::_Sp_counted_ptr_inplace<rocksdb::(anonymous namespace)::BackupEngineImpl::FileInfo, std::allocator<void>, __gnu_cxx::_S_atomic>::_Impl", ptr %_M_impl, i32 0, i32 0
  %call = call noundef ptr @_ZN9__gnu_cxx16__aligned_bufferIN7rocksdb12_GLOBAL__N_116BackupEngineImpl8FileInfoEE6_M_ptrEv(ptr noundef nonnull align 8 dereferenceable(152) %_M_storage) #3
  ret ptr %call
}

; Function Attrs: mustprogress nounwind uwtable
define internal noundef nonnull align 1 dereferenceable(1) ptr @_ZNSt23_Sp_counted_ptr_inplaceIN7rocksdb12_GLOBAL__N_116BackupEngineImpl8FileInfoESaIvELN9__gnu_cxx12_Lock_policyE2EE5_Impl8_M_allocEv(ptr noundef nonnull align 8 dereferenceable(152) %this) #1 align 2 {
entry:
  %this.addr = alloca ptr, align 8
  store ptr %this, ptr %this.addr, align 8
  %this1 = load ptr, ptr %this.addr, align 8
  %call = call noundef nonnull align 1 dereferenceable(1) ptr @_ZNSt14_Sp_ebo_helperILi0ESaIvELb1EE6_S_getERS1_(ptr noundef nonnull align 1 dereferenceable(1) %this1)
  ret ptr %call
}

; Function Attrs: mustprogress nounwind uwtable
define internal void @_ZNSt23_Sp_counted_ptr_inplaceIN7rocksdb12_GLOBAL__N_116BackupEngineImpl8FileInfoESaIvELN9__gnu_cxx12_Lock_policyE2EE10_M_disposeEv(ptr noundef nonnull align 8 dereferenceable(168) %this) unnamed_addr #1 align 2 {
entry:
  %this.addr = alloca ptr, align 8
  store ptr %this, ptr %this.addr, align 8
  %this1 = load ptr, ptr %this.addr, align 8
  %_M_impl = getelementptr inbounds %"class.std::_Sp_counted_ptr_inplace.574", ptr %this1, i32 0, i32 1
  %call = call noundef nonnull align 1 dereferenceable(1) ptr @_ZNSt23_Sp_counted_ptr_inplaceIN7rocksdb12_GLOBAL__N_116BackupEngineImpl8FileInfoESaIvELN9__gnu_cxx12_Lock_policyE2EE5_Impl8_M_allocEv(ptr noundef nonnull align 8 dereferenceable(152) %_M_impl) #3
  %call2 = call noundef ptr @_ZNSt23_Sp_counted_ptr_inplaceIN7rocksdb12_GLOBAL__N_116BackupEngineImpl8FileInfoESaIvELN9__gnu_cxx12_Lock_policyE2EE6_M_ptrEv(ptr noundef nonnull align 8 dereferenceable(168) %this1) #3
  call void @_ZNSt16allocator_traitsISaIvEE7destroyIN7rocksdb12_GLOBAL__N_116BackupEngineImpl8FileInfoEEEvRS0_PT_(ptr noundef nonnull align 1 dereferenceable(1) %call, ptr noundef %call2) #3
  ret void
}